; Function Attrs: mustprogress uwtable
define noundef zeroext i1 @_ZN6google8protobuf2io25CopyingInputStreamAdaptor4NextEPPKvPi(ptr nocapture noundef nonnull align 8 dereferenceable(52) %0, ptr nocapture noundef writeonly %1, ptr nocapture noundef writeonly %2) unnamed_addr #5 align 2 {
  %4 = getelementptr inbounds i8, ptr %0, i64 17
  %5 = load i8, ptr %4, align 1
  %6 = trunc i8 %5 to i1
  br i1 %6, label %49, label %7

7:                                                ; preds = %3
  %8 = getelementptr inbounds i8, ptr %0, i64 32
  %9 = load ptr, ptr %8, align 8
  %10 = icmp eq ptr %9, null
  br i1 %10, label %_ZNSt10unique_ptrIA_hSt14default_deleteIS0_EE5resetIPhvEEvT_.exit.i, label %_ZN6google8protobuf2io25CopyingInputStreamAdaptor22AllocateBufferIfNeededEv.exit

_ZNSt10unique_ptrIA_hSt14default_deleteIS0_EE5resetIPhvEEvT_.exit.i: ; preds = %7
  %11 = getelementptr inbounds i8, ptr %0, i64 40
  %12 = load i32, ptr %11, align 8
  %13 = sext i32 %12 to i64
  %14 = tail call noalias noundef nonnull ptr @_Znam(i64 noundef %13) #18
  store ptr %14, ptr %8, align 8
  br label %_ZN6google8protobuf2io25CopyingInputStreamAdaptor22AllocateBufferIfNeededEv.exit

_ZN6google8protobuf2io25CopyingInputStreamAdaptor22AllocateBufferIfNeededEv.exit: ; preds = %7, %_ZNSt10unique_ptrIA_hSt14default_deleteIS0_EE5resetIPhvEEvT_.exit.i
  %15 = phi ptr [ %9, %7 ], [ %14, %_ZNSt10unique_ptrIA_hSt14default_deleteIS0_EE5resetIPhvEEvT_.exit.i ]
  %16 = getelementptr inbounds i8, ptr %0, i64 48
  %17 = load i32, ptr %16, align 8
  %18 = icmp sgt i32 %17, 0
  br i1 %18, label %19, label %28

19:                                               ; preds = %_ZN6google8protobuf2io25CopyingInputStreamAdaptor22AllocateBufferIfNeededEv.exit
  %20 = getelementptr inbounds i8, ptr %0, i64 44
  %21 = load i32, ptr %20, align 4
  %22 = sext i32 %21 to i64
  %23 = getelementptr inbounds i8, ptr %15, i64 %22
  %24 = zext nneg i32 %17 to i64
  %25 = sub nsw i64 0, %24
  %26 = getelementptr inbounds i8, ptr %23, i64 %25
  store ptr %26, ptr %1, align 8
  %27 = load i32, ptr %16, align 8
  store i32 %27, ptr %2, align 4
  store i32 0, ptr %16, align 8
  br label %49

28:                                               ; preds = %_ZN6google8protobuf2io25CopyingInputStreamAdaptor22AllocateBufferIfNeededEv.exit
  %29 = getelementptr inbounds i8, ptr %0, i64 8
  %30 = load ptr, ptr %29, align 8
  %31 = getelementptr inbounds i8, ptr %0, i64 40
  %32 = load i32, ptr %31, align 8
  %33 = load ptr, ptr %30, align 8
  %34 = getelementptr inbounds i8, ptr %33, i64 16
  %35 = load ptr, ptr %34, align 8
  %36 = tail call noundef i32 %35(ptr noundef nonnull align 8 dereferenceable(8) %30, ptr noundef nonnull %15, i32 noundef %32)
  %37 = getelementptr inbounds i8, ptr %0, i64 44
  store i32 %36, ptr %37, align 4
  %38 = icmp slt i32 %36, 1
  br i1 %38, label %39, label %43

39:                                               ; preds = %28
  %40 = icmp slt i32 %36, 0
  br i1 %40, label %41, label %42

41:                                               ; preds = %39
  store i8 1, ptr %4, align 1
  br label %42

42:                                               ; preds = %41, %39
  tail call void @_ZN6google8protobuf2io25CopyingInputStreamAdaptor10FreeBufferEv(ptr noundef nonnull align 8 dereferenceable(52) %0)
  br label %49

43:                                               ; preds = %28
  %44 = zext nneg i32 %36 to i64
  %45 = getelementptr inbounds i8, ptr %0, i64 24
  %46 = load i64, ptr %45, align 8
  %47 = add nsw i64 %46, %44
  store i64 %47, ptr %45, align 8
  store i32 %36, ptr %2, align 4
  %48 = load ptr, ptr %8, align 8
  store ptr %48, ptr %1, align 8
  br label %49

49:                                               ; preds = %3, %43, %42, %19
  %.0 = phi i1 [ true, %19 ], [ false, %42 ], [ true, %43 ], [ false, %3 ]
  ret i1 %.0
}